ccopy_reg
_reconstructor
p0
(crequests.models
Response
p1
c__builtin__
object
p2
Ntp3
Rp4
(dp5
S'cookies'
p6
g0
(crequests.cookies
RequestsCookieJar
p7
g2
Ntp8
Rp9
(dp10
S'_now'
p11
I1552918816
sS'_policy'
p12
(icookielib
DefaultCookiePolicy
p13
(dp14
S'strict_rfc2965_unverifiable'
p15
I01
sS'strict_ns_domain'
p16
I0
sS'_allowed_domains'
p17
NsS'rfc2109_as_netscape'
p18
NsS'rfc2965'
p19
I00
sS'strict_domain'
p20
I00
sg11
I1552918816
sS'strict_ns_set_path'
p21
I00
sS'strict_ns_unverifiable'
p22
I00
sS'strict_ns_set_initial_dollar'
p23
I00
sS'hide_cookie2'
p24
I00
sS'_blocked_domains'
p25
(tsS'netscape'
p26
I01
sbsS'_cookies'
p27
(dp28
sbsS'_content'
p29
S'eyJhbGciOiJodHRwOi8vd3d3LnczLm9yZy8yMDAxLzA0L3htbGRzaWctbW9yZSNobWFjLXNoYTI1NiIsInR5cCI6IkpXVCJ9.eyJpc3MiOiJ1cm46bXMuY29nbml0aXZlc2VydmljZXMiLCJleHAiOiIxNTUyOTE5NDE2IiwicmVnaW9uIjoiZWFzdGFzaWEiLCJzdWJzY3JpcHRpb24taWQiOiI5NzhhYTdkOTliN2Q0YzcxYmU4NTVlZGJiZmVlZDBjYSIsInByb2R1Y3QtaWQiOiJTcGVlY2hTZXJ2aWNlcy5GMCIsImNvZ25pdGl2ZS1zZXJ2aWNlcy1lbmRwb2ludCI6Imh0dHBzOi8vYXBpLmNvZ25pdGl2ZS5taWNyb3NvZnQuY29tL2ludGVybmFsL3YxLjAvIiwiYXp1cmUtcmVzb3VyY2UtaWQiOiIvc3Vic2NyaXB0aW9ucy9jYTU1NTBiMC0zYTA3LTQzYTQtYTk2YS0wNGNmNWVkMGExNWQvcmVzb3VyY2VHcm91cHMvZS1kcmVhbS9wcm92aWRlcnMvTWljcm9zb2Z0LkNvZ25pdGl2ZVNlcnZpY2VzL2FjY291bnRzL3NwZWVjaC1zZXJ2aWNlIiwic2NvcGUiOiJzcGVlY2hzZXJ2aWNlcyIsImF1ZCI6InVybjptcy5zcGVlY2hzZXJ2aWNlcy5lYXN0YXNpYSJ9.yf2hxrnKJewKwysNKcYenyfKncHzIEMdwnLAZkmk__0'
p30
sS'encoding'
p31
S'us-ascii'
p32
sS'url'
p33
Vhttps://eastasia.api.cognitive.microsoft.com/sts/v1.0/issueToken
p34
sS'status_code'
p35
I200
sS'request'
p36
g0
(crequests.models
PreparedRequest
p37
g2
Ntp38
Rp39
(dp40
S'body'
p41
Nsg33
S'https://eastasia.api.cognitive.microsoft.com/sts/v1.0/issueToken'
p42
sS'hooks'
p43
(dp44
S'response'
p45
(lp46
ssS'headers'
p47
g0
(crequests.structures
CaseInsensitiveDict
p48
g2
Ntp49
Rp50
(dp51
S'_store'
p52
curllib3.packages.ordered_dict
OrderedDict
p53
((lp54
(lp55
S'connection'
p56
a(S'Connection'
p57
S'keep-alive'
p58
tp59
aa(lp60
S'accept-encoding'
p61
a(S'Accept-Encoding'
p62
S'gzip, deflate'
p63
tp64
aa(lp65
S'accept'
p66
a(S'Accept'
p67
S'*/*'
p68
tp69
aa(lp70
S'user-agent'
p71
a(S'user-agent'
p72
S'Mozilla/5.0 (Macintosh; Intel Mac OS X 10_12_3) AppleWebKit/537.36 (KHTML, like Gecko) Chrome/65.0.3325.181 Safari/537.36'
p73
tp74
aa(lp75
S'ocp-apim-subscription-key'
p76
a(S'Ocp-Apim-Subscription-Key'
p77
S'dea851035232423ca91e1c07323174c8'
p78
tp79
aa(lp80
S'content-length'
p81
a(S'Content-Length'
p82
S'0'
p83
tp84
aatp85
Rp86
sbsS'_body_position'
p87
Nsg27
g0
(g7
g2
Ntp88
Rp89
(dp90
g11
I1552918816
sg12
(icookielib
DefaultCookiePolicy
p91
(dp92
g15
I01
sg16
I0
sg17
Nsg18
Nsg19
I00
sg20
I00
sg11
I1552918816
sg21
I00
sg22
I00
sg23
I00
sg24
I00
sg25
(tsg26
I01
sbsg27
(dp93
sbsS'method'
p94
S'POST'
p95
sbsS'elapsed'
p96
cdatetime
timedelta
p97
(I0
I0
I295781
tp98
Rp99
sg47
g0
(g48
g2
Ntp100
Rp101
(dp102
g52
g53
((lp103
(lp104
S'cache-control'
p105
a(S'Cache-Control'
p106
S'no-cache'
p107
tp108
aa(lp109
S'pragma'
p110
a(S'Pragma'
p111
S'no-cache'
p112
tp113
aa(lp114
S'content-length'
p115
a(S'Content-Length'
p116
S'761'
p117
tp118
aa(lp119
S'content-type'
p120
a(S'Content-Type'
p121
S'application/jwt; charset=us-ascii'
p122
tp123
aa(lp124
S'expires'
p125
a(S'Expires'
p126
S'-1'
p127
tp128
aa(lp129
S'x-aspnet-version'
p130
a(S'X-AspNet-Version'
p131
S'4.0.30319'
p132
tp133
aa(lp134
S'x-powered-by'
p135
a(S'X-Powered-By'
p136
S'ASP.NET'
p137
tp138
aa(lp139
S'apim-request-id'
p140
a(S'apim-request-id'
p141
S'efcb130b-f2fd-4c78-a834-8f9120837886'
p142
tp143
aa(lp144
S'strict-transport-security'
p145
a(S'Strict-Transport-Security'
p146
S'max-age=31536000; includeSubDomains; preload'
p147
tp148
aa(lp149
S'x-content-type-options'
p150
a(S'x-content-type-options'
p151
S'nosniff'
p152
tp153
aa(lp154
S'date'
p155
a(S'Date'
p156
S'Mon, 18 Mar 2019 14:20:16 GMT'
p157
tp158
aatp159
Rp160
sbsS'reason'
p161
S'OK'
p162
sS'history'
p163
(lp164
sb.